target datalayout = "e-m:e-p270:32:32-p271:32:32-p272:64:64-i64:64-i128:128-f80:128-n8:16:32:64-S128"
target triple = "x86_64-pc-linux-gnu"

%"class.std::__cxx11::basic_string" = type { %"struct.std::__cxx11::basic_string<char>::_Alloc_hider", i64, %union.anon }
%"struct.std::__cxx11::basic_string<char>::_Alloc_hider" = type { ptr }
%union.anon = type { i64, [8 x i8] }

; Function Attrs: mustprogress uwtable
define dso_local void @_ZN4Luau3repERKNSt7__cxx1112basic_stringIcSt11char_traitsIcESaIcEEEm(ptr dead_on_unwind noalias writable sret(%"class.std::__cxx11::basic_string") align 8 %0, ptr noundef nonnull align 8 dereferenceable(32) %1, i64 noundef %2) #6 personality ptr @__gxx_personality_v0 {
  %4 = alloca ptr, align 8
  %5 = alloca ptr, align 8
  %6 = alloca i64, align 8
  %7 = alloca i1, align 1
  %8 = alloca ptr, align 8
  %9 = alloca i32, align 4
  %10 = alloca i64, align 8
  store ptr %0, ptr %4, align 8
  store ptr %1, ptr %5, align 8
  store i64 %2, ptr %6, align 8
  store i1 false, ptr %7, align 1
  call void @_ZNSt7__cxx1112basic_stringIcSt11char_traitsIcESaIcEEC1Ev(ptr noundef nonnull align 8 dereferenceable(32) %0) #2
  %11 = load ptr, ptr %5, align 8
  %12 = call noundef i64 @_ZNKSt7__cxx1112basic_stringIcSt11char_traitsIcESaIcEE6lengthEv(ptr noundef nonnull align 8 dereferenceable(32) %11) #2
  %13 = load i64, ptr %6, align 8
  %14 = mul i64 %12, %13
  invoke void @_ZNSt7__cxx1112basic_stringIcSt11char_traitsIcESaIcEE7reserveEm(ptr noundef nonnull align 8 dereferenceable(32) %0, i64 noundef %14)
          to label %15 unwind label %27

15:                                               ; preds = %3
  store i64 0, ptr %10, align 8
  br label %16

16:                                               ; preds = %24, %15
  %17 = load i64, ptr %10, align 8
  %18 = load i64, ptr %6, align 8
  %19 = icmp ult i64 %17, %18
  br i1 %19, label %20, label %31

20:                                               ; preds = %16
  %21 = load ptr, ptr %5, align 8
  %22 = invoke noundef nonnull align 8 dereferenceable(32) ptr @_ZNSt7__cxx1112basic_stringIcSt11char_traitsIcESaIcEEpLERKS4_(ptr noundef nonnull align 8 dereferenceable(32) %0, ptr noundef nonnull align 8 dereferenceable(32) %21)
          to label %23 unwind label %27

23:                                               ; preds = %20
  br label %24

24:                                               ; preds = %23
  %25 = load i64, ptr %10, align 8
  %26 = add i64 %25, 1
  store i64 %26, ptr %10, align 8
  br label %16, !llvm.loop !30

27:                                               ; preds = %20, %3
  %28 = landingpad { ptr, i32 }
          cleanup
  %29 = extractvalue { ptr, i32 } %28, 0
  store ptr %29, ptr %8, align 8
  %30 = extractvalue { ptr, i32 } %28, 1
  store i32 %30, ptr %9, align 4
  call void @_ZNSt7__cxx1112basic_stringIcSt11char_traitsIcESaIcEED1Ev(ptr noundef nonnull align 8 dereferenceable(32) %0) #2
  br label %35

31:                                               ; preds = %16
  store i1 true, ptr %7, align 1
  %32 = load i1, ptr %7, align 1
  br i1 %32, label %34, label %33

33:                                               ; preds = %31
  call void @_ZNSt7__cxx1112basic_stringIcSt11char_traitsIcESaIcEED1Ev(ptr noundef nonnull align 8 dereferenceable(32) %0) #2
  br label %34

34:                                               ; preds = %33, %31
  ret void

35:                                               ; preds = %27
  %36 = load ptr, ptr %8, align 8
  %37 = load i32, ptr %9, align 4
  %38 = insertvalue { ptr, i32 } poison, ptr %36, 0
  %39 = insertvalue { ptr, i32 } %38, i32 %37, 1
  resume { ptr, i32 } %39
}