; Function Attrs: mustprogress uwtable
define dso_local void @_ZN4Luau3repERKNSt7__cxx1112basic_stringIcSt11char_traitsIcESaIcEEEm(ptr dead_on_unwind noalias nonnull writable sret(%"class.std::__cxx11::basic_string") align 8 %0, ptr noundef nonnull align 8 dereferenceable(32) %1, i64 noundef %2) local_unnamed_addr #6 personality ptr @__gxx_personality_v0 {
  tail call void @_ZNSt7__cxx1112basic_stringIcSt11char_traitsIcESaIcEEC1Ev(ptr noundef nonnull align 8 dereferenceable(32) %0) #27
  %4 = tail call noundef i64 @_ZNKSt7__cxx1112basic_stringIcSt11char_traitsIcESaIcEE6lengthEv(ptr noundef nonnull align 8 dereferenceable(32) %1) #27
  %5 = mul i64 %4, %2
  invoke void @_ZNSt7__cxx1112basic_stringIcSt11char_traitsIcESaIcEE7reserveEm(ptr noundef nonnull align 8 dereferenceable(32) %0, i64 noundef %5)
          to label %.preheader unwind label %.loopexit.split-lp

.preheader:                                       ; preds = %3
  %.not = icmp eq i64 %2, 0
  br i1 %.not, label %._crit_edge, label %.lr.ph

.lr.ph:                                           ; preds = %.preheader, %7
  %.08 = phi i64 [ %8, %7 ], [ 0, %.preheader ]
  %6 = invoke noundef nonnull align 8 dereferenceable(32) ptr @_ZNSt7__cxx1112basic_stringIcSt11char_traitsIcESaIcEEpLERKS4_(ptr noundef nonnull align 8 dereferenceable(32) %0, ptr noundef nonnull align 8 dereferenceable(32) %1)
          to label %7 unwind label %.loopexit

7:                                                ; preds = %.lr.ph
  %8 = add nuw i64 %.08, 1
  %exitcond.not = icmp eq i64 %8, %2
  br i1 %exitcond.not, label %._crit_edge, label %.lr.ph, !llvm.loop !101

.loopexit:                                        ; preds = %.lr.ph
  %lpad.loopexit = landingpad { ptr, i32 }
          cleanup
  br label %9

.loopexit.split-lp:                               ; preds = %3
  %lpad.loopexit.split-lp = landingpad { ptr, i32 }
          cleanup
  br label %9

9:                                                ; preds = %.loopexit.split-lp, %.loopexit
  %lpad.phi = phi { ptr, i32 } [ %lpad.loopexit, %.loopexit ], [ %lpad.loopexit.split-lp, %.loopexit.split-lp ]
  tail call void @_ZNSt7__cxx1112basic_stringIcSt11char_traitsIcESaIcEED1Ev(ptr noundef nonnull align 8 dereferenceable(32) %0) #27
  resume { ptr, i32 } %lpad.phi

._crit_edge:                                      ; preds = %7, %.preheader
  ret void
}